target datalayout = "e-m:e-p270:32:32-p271:32:32-p272:64:64-i64:64-i128:128-f80:128-n8:16:32:64-S128"
target triple = "x86_64-pc-linux-gnu"

%struct._packet_info = type { ptr, ptr, i32, i32, %struct.nstime_t, %struct.nstime_t, %struct.nstime_t, i8, ptr, ptr, ptr, ptr, %struct._address, %struct._address, %struct._address, %struct._address, %struct._address, %struct._address, i32, ptr, i8, [3 x i8], %struct.anon, i32, i32, i32, i32, ptr, i8, ptr, ptr, i16, i16, i32, i32, i16, i32, i32, ptr, ptr, ptr, i8, i8, i16, i16, i16, i32, i16, i16, ptr, ptr, ptr, ptr, ptr, i32, i32 }
%struct.nstime_t = type { i64, i32 }
%struct._address = type { i32, i32, ptr, ptr }
%struct.anon = type { i8, [3 x i8] }

@hf_kpasswd_result = internal global i32 0, align 4
@hf_kpasswd_result_string = internal global i32 0, align 4
@.str.46 = private unnamed_addr constant [11 x i8] c"Result: %u\00", align 1

; Function Attrs: null_pointer_is_valid sspstrong uwtable
define internal i32 @dissect_kpasswd_user_data_reply(ptr noundef %0, ptr noundef %1, ptr noundef %2) #0 {
  %4 = alloca ptr, align 8
  %5 = alloca ptr, align 8
  %6 = alloca ptr, align 8
  %7 = alloca i32, align 4
  %8 = alloca i16, align 2
  store ptr %0, ptr %4, align 8
  store ptr %1, ptr %5, align 8
  store ptr %2, ptr %6, align 8
  call void @llvm.lifetime.start.p0(i64 4, ptr %7) #3
  store i32 0, ptr %7, align 4
  call void @llvm.lifetime.start.p0(i64 2, ptr %8) #3
  %9 = load ptr, ptr %5, align 8
  %10 = load i32, ptr %7, align 4
  %11 = call zeroext i16 @tvb_get_ntohs(ptr noundef %9, i32 noundef %10)
  store i16 %11, ptr %8, align 2
  %12 = load ptr, ptr %6, align 8
  %13 = load i32, ptr @hf_kpasswd_result, align 4
  %14 = load ptr, ptr %5, align 8
  %15 = load i32, ptr %7, align 4
  %16 = load i16, ptr %8, align 2
  %17 = zext i16 %16 to i32
  %18 = call ptr @proto_tree_add_uint(ptr noundef %12, i32 noundef %13, ptr noundef %14, i32 noundef %15, i32 noundef 2, i32 noundef %17)
  %19 = load i32, ptr %7, align 4
  %20 = add i32 %19, 2
  store i32 %20, ptr %7, align 4
  %21 = load ptr, ptr %4, align 8
  %22 = getelementptr inbounds nuw %struct._packet_info, ptr %21, i32 0, i32 1
  %23 = load ptr, ptr %22, align 8
  %24 = load i16, ptr %8, align 2
  %25 = zext i16 %24 to i32
  %26 = call ptr @val_to_str(i32 noundef %25, ptr noundef @kpasswd_result_types, ptr noundef @.str.46)
  call void @col_add_str(ptr noundef %23, i32 noundef 25, ptr noundef %26)
  %27 = load ptr, ptr %5, align 8
  %28 = load i32, ptr %7, align 4
  %29 = call i32 @tvb_reported_length_remaining(ptr noundef %27, i32 noundef %28)
  %30 = icmp sgt i32 %29, 0
  br i1 %30, label %31, label %42

31:                                               ; preds = %3
  %32 = load ptr, ptr %6, align 8
  %33 = load i32, ptr @hf_kpasswd_result_string, align 4
  %34 = load ptr, ptr %5, align 8
  %35 = load i32, ptr %7, align 4
  %36 = load ptr, ptr %5, align 8
  %37 = load i32, ptr %7, align 4
  %38 = call i32 @tvb_reported_length_remaining(ptr noundef %36, i32 noundef %37)
  %39 = call ptr @proto_tree_add_item(ptr noundef %32, i32 noundef %33, ptr noundef %34, i32 noundef %35, i32 noundef %38, i32 noundef 0)
  %40 = load ptr, ptr %5, align 8
  %41 = call i32 @tvb_reported_length(ptr noundef %40)
  store i32 %41, ptr %7, align 4
  br label %42

42:                                               ; preds = %31, %3
  %43 = load i32, ptr %7, align 4
  call void @llvm.lifetime.end.p0(i64 2, ptr %8) #3
  call void @llvm.lifetime.end.p0(i64 4, ptr %7) #3
  ret i32 %43
}