; Function Attrs: null_pointer_is_valid sspstrong uwtable
define internal i32 @dissect_kpasswd_user_data_reply(ptr noundef readonly captures(none) %0, ptr noundef %1, ptr noundef %2) #0 {
  %4 = tail call zeroext i16 @tvb_get_ntohs(ptr noundef %1, i32 noundef 0)
  %5 = load i32, ptr @hf_kpasswd_result, align 4
  %6 = zext i16 %4 to i32
  %7 = tail call ptr @proto_tree_add_uint(ptr noundef %2, i32 noundef %5, ptr noundef %1, i32 noundef 0, i32 noundef 2, i32 noundef %6)
  %8 = getelementptr inbounds nuw i8, ptr %0, i64 8
  %9 = load ptr, ptr %8, align 8
  %10 = tail call ptr @val_to_str(i32 noundef %6, ptr noundef nonnull @kpasswd_result_types, ptr noundef nonnull @.str.46)
  tail call void @col_add_str(ptr noundef %9, i32 noundef 25, ptr noundef %10)
  %11 = tail call i32 @tvb_reported_length_remaining(ptr noundef %1, i32 noundef 2)
  %12 = icmp sgt i32 %11, 0
  br i1 %12, label %13, label %18

13:                                               ; preds = %3
  %14 = load i32, ptr @hf_kpasswd_result_string, align 4
  %15 = tail call i32 @tvb_reported_length_remaining(ptr noundef %1, i32 noundef 2)
  %16 = tail call ptr @proto_tree_add_item(ptr noundef %2, i32 noundef %14, ptr noundef %1, i32 noundef 2, i32 noundef %15, i32 noundef 0)
  %17 = tail call i32 @tvb_reported_length(ptr noundef %1)
  br label %18

18:                                               ; preds = %13, %3
  %.0 = phi i32 [ %17, %13 ], [ 2, %3 ]
  ret i32 %.0
}